target datalayout = "e-m:e-p270:32:32-p271:32:32-p272:64:64-i64:64-i128:128-f80:128-n8:16:32:64-S128"
target triple = "x86_64-pc-linux-gnu"

%union.pthread_mutex_t = type { %struct.__pthread_mutex_s }
%struct.__pthread_mutex_s = type { i32, i32, i32, i32, i32, i16, i16, %struct.__pthread_internal_list }
%struct.__pthread_internal_list = type { ptr, ptr }
%struct.job_record = type { i32, ptr, ptr, ptr, ptr, i16, i32, i32, i32, ptr, i32, ptr, ptr, i16, ptr, double, i64, ptr, ptr, ptr, ptr, ptr, ptr, i32, ptr, i32, i64, i64, i32, i32, ptr, i16, i64, i64, i8, i32, ptr, ptr, ptr, ptr, ptr, ptr, ptr, ptr, i32, ptr, ptr, i32, ptr, i32, ptr, i32, ptr, i32, ptr, ptr, ptr, ptr, ptr, ptr, i32, i16, i64, ptr, ptr, ptr, ptr, %struct.acct_policy_limit_set_t, i16, ptr, ptr, ptr, ptr, ptr, i32, ptr, ptr, ptr, ptr, ptr, i32, i32, ptr, ptr, ptr, i16, ptr, ptr, i8, ptr, ptr, i64, i64, i8, i32, i32, i8, i32, ptr, i32, i64, i32, ptr, ptr, ptr, i8, i16, i64, i32, ptr, ptr, ptr, ptr, ptr, i16, i32, ptr, ptr, ptr, ptr, i32, ptr, i32, i16, i64, ptr, i32, i32, ptr, i64, ptr, ptr, i64, i32, i32, i64, i32, i32, ptr, ptr, ptr, ptr, ptr, ptr, ptr, ptr, ptr, ptr, ptr, ptr, i32, ptr, i16, i16, i16, i16, ptr, i32, i32, i8, i64 }
%struct.acct_policy_limit_set_t = type { i16, i16, ptr }
%struct.job_fed_details_t = type { i32, ptr, i64, ptr, i64, ptr }
%struct.slurmdb_federation_rec_t = type { ptr, i32, ptr }
%struct.slurmdb_cluster_rec = type { ptr, i16, i64, %struct.sockaddr_storage, ptr, i32, i16, ptr, i16, %struct.slurmdb_cluster_fed_t, i32, %union.pthread_mutex_t, ptr, ptr, ptr, i16, ptr, ptr }
%struct.sockaddr_storage = type { i16, [118 x i8], i64 }
%struct.slurmdb_cluster_fed_t = type { ptr, i32, ptr, ptr, ptr, i32, i8, i8 }

@fed_mgr_fed_rec = dso_local global ptr null, align 8
@fed_mgr_cluster_rec = dso_local global ptr null, align 8
@.str.183 = private unnamed_addr constant [28 x i8] c"job %pJ not a federated job\00", align 1

; Function Attrs: nounwind uwtable
define dso_local i32 @fed_mgr_get_cluster_id(i32 noundef %0) #0 {
  %2 = alloca i32, align 4
  store i32 %0, ptr %2, align 4
  %3 = load i32, ptr %2, align 4
  %4 = lshr i32 %3, 26
  ret i32 %4
}

; Function Attrs: nounwind uwtable
define dso_local ptr @fed_mgr_get_cluster_by_name(ptr noundef %0) #0 {
  %2 = alloca ptr, align 8
  %3 = alloca ptr, align 8
  store ptr %0, ptr %3, align 8
  %4 = load ptr, ptr @fed_mgr_fed_rec, align 8
  %5 = icmp ne ptr %4, null
  br i1 %5, label %7, label %6

6:                                                ; preds = %1
  store ptr null, ptr %2, align 8
  br label %13

7:                                                ; preds = %1
  %8 = load ptr, ptr @fed_mgr_fed_rec, align 8
  %9 = getelementptr inbounds nuw %struct.slurmdb_federation_rec_t, ptr %8, i32 0, i32 2
  %10 = load ptr, ptr %9, align 8
  %11 = load ptr, ptr %3, align 8
  %12 = call ptr @list_find_first(ptr noundef %10, ptr noundef @slurmdb_find_cluster_in_list, ptr noundef %11)
  store ptr %12, ptr %2, align 8
  br label %13

13:                                               ; preds = %7, %6
  %14 = load ptr, ptr %2, align 8
  ret ptr %14
}

; Function Attrs: nounwind uwtable
define internal i32 @_is_fed_job(ptr noundef %0, ptr noundef %1) #0 {
  %3 = alloca i32, align 4
  %4 = alloca ptr, align 8
  %5 = alloca ptr, align 8
  store ptr %0, ptr %4, align 8
  store ptr %1, ptr %5, align 8
  %6 = load ptr, ptr @fed_mgr_cluster_rec, align 8
  %7 = icmp ne ptr %6, null
  br i1 %7, label %9, label %8

8:                                                ; preds = %2
  store i32 0, ptr %3, align 4
  br label %32

9:                                                ; preds = %2
  %10 = load ptr, ptr %4, align 8
  %11 = getelementptr inbounds nuw %struct.job_record, ptr %10, i32 0, i32 39
  %12 = load ptr, ptr %11, align 8
  %13 = icmp ne ptr %12, null
  br i1 %13, label %14, label %21

14:                                               ; preds = %9
  %15 = load ptr, ptr %4, align 8
  %16 = getelementptr inbounds nuw %struct.job_record, ptr %15, i32 0, i32 53
  %17 = load i32, ptr %16, align 8
  %18 = call i32 @fed_mgr_get_cluster_id(i32 noundef %17)
  %19 = load ptr, ptr %5, align 8
  store i32 %18, ptr %19, align 4
  %20 = icmp ne i32 %18, 0
  br i1 %20, label %31, label %21

21:                                               ; preds = %14, %9
  br label %22

22:                                               ; preds = %21
  br label %23

23:                                               ; preds = %22
  %24 = call i32 @get_log_level()
  %25 = icmp sge i32 %24, 6
  br i1 %25, label %26, label %28

26:                                               ; preds = %23
  %27 = load ptr, ptr %4, align 8
  call void (i32, ptr, ...) @log_var(i32 noundef 6, ptr noundef @.str.183, ptr noundef %27)
  br label %28

28:                                               ; preds = %26, %23
  br label %29

29:                                               ; preds = %28
  br label %30

30:                                               ; preds = %29
  store i32 0, ptr %3, align 4
  br label %32

31:                                               ; preds = %14
  store i32 1, ptr %3, align 4
  br label %32

32:                                               ; preds = %31, %30, %8
  %33 = load i32, ptr %3, align 4
  ret i32 %33
}

; Function Attrs: nounwind uwtable
define dso_local i32 @fed_mgr_remove_active_sibling(i32 noundef %0, ptr noundef %1) #0 {
  %3 = alloca i32, align 4
  %4 = alloca i32, align 4
  %5 = alloca ptr, align 8
  %6 = alloca i32, align 4
  %7 = alloca ptr, align 8
  %8 = alloca ptr, align 8
  %9 = alloca i32, align 4
  %10 = alloca i64, align 8
  store i32 %0, ptr %4, align 4
  store ptr %1, ptr %5, align 8
  call void @llvm.lifetime.start.p0(i64 4, ptr %6) #9
  call void @llvm.lifetime.start.p0(i64 8, ptr %7) #9
  store ptr null, ptr %7, align 8
  call void @llvm.lifetime.start.p0(i64 8, ptr %8) #9
  %11 = load i32, ptr %4, align 4
  %12 = call ptr @find_job_record(i32 noundef %11)
  store ptr %12, ptr %7, align 8
  %13 = icmp ne ptr %12, null
  br i1 %13, label %15, label %14

14:                                               ; preds = %2
  store i32 2017, ptr %3, align 4
  store i32 1, ptr %9, align 4
  br label %90

15:                                               ; preds = %2
  %16 = load ptr, ptr %7, align 8
  %17 = call i32 @_is_fed_job(ptr noundef %16, ptr noundef %6)
  %18 = icmp ne i32 %17, 0
  br i1 %18, label %20, label %19

19:                                               ; preds = %15
  store i32 7103, ptr %3, align 4
  store i32 1, ptr %9, align 4
  br label %90

20:                                               ; preds = %15
  %21 = load ptr, ptr %7, align 8
  %22 = getelementptr inbounds nuw %struct.job_record, ptr %21, i32 0, i32 39
  %23 = load ptr, ptr %22, align 8
  %24 = getelementptr inbounds nuw %struct.job_fed_details_t, ptr %23, i32 0, i32 0
  %25 = load i32, ptr %24, align 8
  %26 = icmp ne i32 %25, 0
  br i1 %26, label %27, label %28

27:                                               ; preds = %20
  store i32 2073, ptr %3, align 4
  store i32 1, ptr %9, align 4
  br label %90

28:                                               ; preds = %20
  %29 = load ptr, ptr %5, align 8
  %30 = call ptr @fed_mgr_get_cluster_by_name(ptr noundef %29)
  store ptr %30, ptr %8, align 8
  %31 = icmp ne ptr %30, null
  br i1 %31, label %33, label %32

32:                                               ; preds = %28
  store i32 7104, ptr %3, align 4
  store i32 1, ptr %9, align 4
  br label %90

33:                                               ; preds = %28
  %34 = load ptr, ptr %7, align 8
  %35 = getelementptr inbounds nuw %struct.job_record, ptr %34, i32 0, i32 39
  %36 = load ptr, ptr %35, align 8
  %37 = getelementptr inbounds nuw %struct.job_fed_details_t, ptr %36, i32 0, i32 2
  %38 = load i64, ptr %37, align 8
  %39 = load ptr, ptr %8, align 8
  %40 = getelementptr inbounds nuw %struct.slurmdb_cluster_rec, ptr %39, i32 0, i32 9
  %41 = getelementptr inbounds nuw %struct.slurmdb_cluster_fed_t, ptr %40, i32 0, i32 1
  %42 = load i32, ptr %41, align 8
  %43 = sub i32 %42, 1
  %44 = zext i32 %43 to i64
  %45 = shl i64 1, %44
  %46 = and i64 %38, %45
  %47 = icmp ne i64 %46, 0
  br i1 %47, label %48, label %89

48:                                               ; preds = %33
  call void @llvm.lifetime.start.p0(i64 8, ptr %10) #9
  %49 = call i64 @time(ptr noundef null) #9
  store i64 %49, ptr %10, align 8
  %50 = load ptr, ptr @fed_mgr_cluster_rec, align 8
  %51 = load ptr, ptr %8, align 8
  %52 = icmp eq ptr %50, %51
  br i1 %52, label %53, label %57

53:                                               ; preds = %48
  %54 = load ptr, ptr %7, align 8
  %55 = load i64, ptr %10, align 8
  %56 = call i32 @fed_mgr_job_revoke(ptr noundef %54, i1 noundef zeroext false, i32 noundef 0, i32 noundef 4, i64 noundef %55)
  br label %73

57:                                               ; preds = %48
  %58 = load ptr, ptr %7, align 8
  %59 = getelementptr inbounds nuw %struct.job_record, ptr %58, i32 0, i32 53
  %60 = load i32, ptr %59, align 8
  %61 = load ptr, ptr @fed_mgr_cluster_rec, align 8
  %62 = getelementptr inbounds nuw %struct.slurmdb_cluster_rec, ptr %61, i32 0, i32 9
  %63 = getelementptr inbounds nuw %struct.slurmdb_cluster_fed_t, ptr %62, i32 0, i32 1
  %64 = load i32, ptr %63, align 8
  %65 = load ptr, ptr %8, align 8
  %66 = getelementptr inbounds nuw %struct.slurmdb_cluster_rec, ptr %65, i32 0, i32 9
  %67 = getelementptr inbounds nuw %struct.slurmdb_cluster_fed_t, ptr %66, i32 0, i32 1
  %68 = load i32, ptr %67, align 8
  %69 = sub i32 %68, 1
  %70 = zext i32 %69 to i64
  %71 = shl i64 1, %70
  %72 = load i64, ptr %10, align 8
  call void @_revoke_sibling_jobs(i32 noundef %60, i32 noundef %64, i64 noundef %71, i64 noundef %72)
  br label %73

73:                                               ; preds = %57, %53
  %74 = load ptr, ptr %8, align 8
  %75 = getelementptr inbounds nuw %struct.slurmdb_cluster_rec, ptr %74, i32 0, i32 9
  %76 = getelementptr inbounds nuw %struct.slurmdb_cluster_fed_t, ptr %75, i32 0, i32 1
  %77 = load i32, ptr %76, align 8
  %78 = sub i32 %77, 1
  %79 = zext i32 %78 to i64
  %80 = shl i64 1, %79
  %81 = xor i64 %80, -1
  %82 = load ptr, ptr %7, align 8
  %83 = getelementptr inbounds nuw %struct.job_record, ptr %82, i32 0, i32 39
  %84 = load ptr, ptr %83, align 8
  %85 = getelementptr inbounds nuw %struct.job_fed_details_t, ptr %84, i32 0, i32 2
  %86 = load i64, ptr %85, align 8
  %87 = and i64 %86, %81
  store i64 %87, ptr %85, align 8
  %88 = load ptr, ptr %7, align 8
  call void @update_job_fed_details(ptr noundef %88)
  call void @llvm.lifetime.end.p0(i64 8, ptr %10) #9
  br label %89

89:                                               ; preds = %73, %33
  store i32 0, ptr %3, align 4
  store i32 1, ptr %9, align 4
  br label %90

90:                                               ; preds = %89, %32, %27, %19, %14
  call void @llvm.lifetime.end.p0(i64 8, ptr %8) #9
  call void @llvm.lifetime.end.p0(i64 8, ptr %7) #9
  call void @llvm.lifetime.end.p0(i64 4, ptr %6) #9
  %91 = load i32, ptr %3, align 4
  ret i32 %91
}