; Function Attrs: nounwind uwtable
define dso_local range(i32 0, 7105) i32 @fed_mgr_remove_active_sibling(i32 noundef %0, ptr noundef %1) local_unnamed_addr #0 {
  %3 = tail call ptr @find_job_record(i32 noundef %0) #16
  %.not = icmp eq ptr %3, null
  br i1 %.not, label %_is_fed_job.exit.thread, label %4

4:                                                ; preds = %2
  %5 = load ptr, ptr @fed_mgr_cluster_rec, align 8
  %.not.i = icmp eq ptr %5, null
  br i1 %.not.i, label %_is_fed_job.exit.thread, label %6

6:                                                ; preds = %4
  %7 = getelementptr inbounds nuw i8, ptr %3, i64 280
  %8 = load ptr, ptr %7, align 8
  %.not4.i = icmp eq ptr %8, null
  br i1 %.not4.i, label %12, label %9

9:                                                ; preds = %6
  %10 = getelementptr inbounds nuw i8, ptr %3, i64 392
  %11 = load i32, ptr %10, align 8
  %.not5.i = icmp ult i32 %11, 67108864
  br i1 %.not5.i, label %12, label %_is_fed_job.exit

12:                                               ; preds = %9, %6
  %13 = tail call i32 @get_log_level() #16
  %14 = icmp sgt i32 %13, 5
  br i1 %14, label %15, label %_is_fed_job.exit.thread

15:                                               ; preds = %12
  tail call void (i32, ptr, ...) @log_var(i32 noundef 6, ptr noundef nonnull @.str.183, ptr noundef nonnull %3) #16
  br label %_is_fed_job.exit.thread

_is_fed_job.exit:                                 ; preds = %9
  %16 = load i32, ptr %8, align 8
  %.not19 = icmp eq i32 %16, 0
  br i1 %.not19, label %17, label %_is_fed_job.exit.thread

17:                                               ; preds = %_is_fed_job.exit
  %18 = load ptr, ptr @fed_mgr_fed_rec, align 8
  %.not.i22 = icmp eq ptr %18, null
  br i1 %.not.i22, label %_is_fed_job.exit.thread, label %fed_mgr_get_cluster_by_name.exit

fed_mgr_get_cluster_by_name.exit:                 ; preds = %17
  %19 = getelementptr inbounds nuw i8, ptr %18, i64 16
  %20 = load ptr, ptr %19, align 8
  %21 = tail call ptr @list_find_first(ptr noundef %20, ptr noundef nonnull @slurmdb_find_cluster_in_list, ptr noundef %1) #16
  %.not20 = icmp eq ptr %21, null
  br i1 %.not20, label %_is_fed_job.exit.thread, label %22

22:                                               ; preds = %fed_mgr_get_cluster_by_name.exit
  %23 = load ptr, ptr %7, align 8
  %24 = getelementptr inbounds nuw i8, ptr %23, i64 16
  %25 = load i64, ptr %24, align 8
  %26 = getelementptr inbounds nuw i8, ptr %21, i64 192
  %27 = load i32, ptr %26, align 8
  %28 = add i32 %27, -1
  %29 = zext nneg i32 %28 to i64
  %30 = shl nuw i64 1, %29
  %31 = and i64 %30, %25
  %.not21 = icmp eq i64 %31, 0
  br i1 %.not21, label %_is_fed_job.exit.thread, label %32

32:                                               ; preds = %22
  %33 = tail call i64 @time(ptr noundef null) #16
  %34 = load ptr, ptr @fed_mgr_cluster_rec, align 8
  %35 = icmp eq ptr %34, %21
  br i1 %35, label %36, label %38

36:                                               ; preds = %32
  %37 = tail call i32 @fed_mgr_job_revoke(ptr noundef nonnull %3, i1 noundef zeroext false, i32 noundef 0, i32 noundef 4, i64 noundef %33)
  br label %46

38:                                               ; preds = %32
  %39 = load i32, ptr %10, align 8
  %40 = getelementptr inbounds nuw i8, ptr %34, i64 192
  %41 = load i32, ptr %40, align 8
  %42 = load i32, ptr %26, align 8
  %43 = add i32 %42, -1
  %44 = zext nneg i32 %43 to i64
  %45 = shl nuw i64 1, %44
  tail call fastcc void @_revoke_sibling_jobs(i32 noundef %39, i32 noundef %41, i64 noundef %45, i64 noundef %33)
  br label %46

46:                                               ; preds = %38, %36
  %47 = load i32, ptr %26, align 8
  %48 = add i32 %47, -1
  %49 = zext nneg i32 %48 to i64
  %50 = shl nuw i64 1, %49
  %51 = xor i64 %50, -1
  %52 = load ptr, ptr %7, align 8
  %53 = getelementptr inbounds nuw i8, ptr %52, i64 16
  %54 = load i64, ptr %53, align 8
  %55 = and i64 %54, %51
  store i64 %55, ptr %53, align 8
  tail call void @update_job_fed_details(ptr noundef nonnull %3) #16
  br label %_is_fed_job.exit.thread

_is_fed_job.exit.thread:                          ; preds = %17, %12, %15, %4, %22, %46, %fed_mgr_get_cluster_by_name.exit, %_is_fed_job.exit, %2
  %.0 = phi i32 [ 2017, %2 ], [ 2073, %_is_fed_job.exit ], [ 7104, %fed_mgr_get_cluster_by_name.exit ], [ 0, %46 ], [ 0, %22 ], [ 7103, %4 ], [ 7103, %15 ], [ 7103, %12 ], [ 7104, %17 ]
  ret i32 %.0
}